; ModuleID = '29/158.c'
source_filename = "29/158.c"
target datalayout = "e-m:e-p270:32:32-p271:32:32-p272:64:64-i64:64-f80:128-n8:16:32:64-S128"
target triple = "x86_64-pc-linux-gnu"

@.str = private unnamed_addr constant [3 x i8] c"%d\00", align 1
@.str.1 = private unnamed_addr constant [6 x i8] c"%.3f\0A\00", align 1

; Function Attrs: noinline nounwind uwtable
define dso_local i32 @f(i32 %0) #0 {
  %2 = alloca i32, align 4
  %3 = alloca i32, align 4
  store i32 %0, i32* %2, align 4
  %4 = load i32, i32* %2, align 4
  %5 = icmp eq i32 %4, 1
  br i1 %5, label %6, label %7

6:                                                ; preds = %1
  store i32 1, i32* %3, align 4
  br label %7

7:                                                ; preds = %6, %1
  %8 = load i32, i32* %2, align 4
  %9 = icmp eq i32 %8, 2
  br i1 %9, label %10, label %11

10:                                               ; preds = %7
  store i32 2, i32* %3, align 4
  br label %11

11:                                               ; preds = %10, %7
  %12 = load i32, i32* %2, align 4
  %13 = icmp sgt i32 %12, 2
  br i1 %13, label %14, label %22

14:                                               ; preds = %11
  %15 = load i32, i32* %2, align 4
  %16 = sub nsw i32 %15, 1
  %17 = call i32 @f(i32 %16)
  %18 = load i32, i32* %2, align 4
  %19 = sub nsw i32 %18, 2
  %20 = call i32 @f(i32 %19)
  %21 = add nsw i32 %17, %20
  store i32 %21, i32* %3, align 4
  br label %22

22:                                               ; preds = %14, %11
  %23 = load i32, i32* %3, align 4
  ret i32 %23
}

; Function Attrs: noinline nounwind uwtable
define dso_local i32 @main() #0 {
  %1 = alloca i32, align 4
  %2 = alloca i32, align 4
  %3 = alloca i32, align 4
  %4 = alloca i32, align 4
  %5 = alloca i32, align 4
  %6 = alloca float, align 4
  store i32 0, i32* %1, align 4
  %7 = call i32 (i8*, ...) @__isoc99_scanf(i8* getelementptr inbounds ([3 x i8], [3 x i8]* @.str, i64 0, i64 0), i32* %2)
  store i32 0, i32* %3, align 4
  br label %8

8:                                                ; preds = %37, %0
  %9 = load i32, i32* %3, align 4
  %10 = load i32, i32* %2, align 4
  %11 = icmp slt i32 %9, %10
  br i1 %11, label %12, label %40

12:                                               ; preds = %8
  %13 = call i32 (i8*, ...) @__isoc99_scanf(i8* getelementptr inbounds ([3 x i8], [3 x i8]* @.str, i64 0, i64 0), i32* %4)
  store float 0.000000e+00, float* %6, align 4
  store i32 2, i32* %5, align 4
  br label %14

14:                                               ; preds = %30, %12
  %15 = load i32, i32* %5, align 4
  %16 = load i32, i32* %4, align 4
  %17 = add nsw i32 %16, 1
  %18 = icmp sle i32 %15, %17
  br i1 %18, label %19, label %33

19:                                               ; preds = %14
  %20 = load i32, i32* %5, align 4
  %21 = call i32 @f(i32 %20)
  %22 = sitofp i32 %21 to float
  %23 = load i32, i32* %5, align 4
  %24 = sub nsw i32 %23, 1
  %25 = call i32 @f(i32 %24)
  %26 = sitofp i32 %25 to float
  %27 = fdiv float %22, %26
  %28 = load float, float* %6, align 4
  %29 = fadd float %28, %27
  store float %29, float* %6, align 4
  br label %30

30:                                               ; preds = %19
  %31 = load i32, i32* %5, align 4
  %32 = add nsw i32 %31, 1
  store i32 %32, i32* %5, align 4
  br label %14

33:                                               ; preds = %14
  %34 = load float, float* %6, align 4
  %35 = fpext float %34 to double
  %36 = call i32 (i8*, ...) @printf(i8* getelementptr inbounds ([6 x i8], [6 x i8]* @.str.1, i64 0, i64 0), double %35)
  br label %37

37:                                               ; preds = %33
  %38 = load i32, i32* %3, align 4
  %39 = add nsw i32 %38, 1
  store i32 %39, i32* %3, align 4
  br label %8

40:                                               ; preds = %8
  ret i32 0
}

declare dso_local i32 @__isoc99_scanf(i8*, ...) #1

declare dso_local i32 @printf(i8*, ...) #1


!llvm.module.flags = !{!0}
!llvm.ident = !{!1}

!0 = !{i32 1, !"wchar_size", i32 4}
!1 = !{!"clang version 10.0.0-4ubuntu1 "}
