; ModuleID = 'source-C-CXX/28/158.c'
source_filename = "source-C-CXX/28/158.c"
target datalayout = "e-m:e-p270:32:32-p271:32:32-p272:64:64-i64:64-f80:128-n8:16:32:64-S128"
target triple = "x86_64-pc-linux-gnu"

@.str = private unnamed_addr constant [3 x i8] c"%d\00", align 1
@.str.1 = private unnamed_addr constant [6 x i8] c"%.3f\0A\00", align 1

; Function Attrs: nofree nosync nounwind readnone sspstrong uwtable
define dso_local i32 @f(i32 %0) local_unnamed_addr #0 {
  %2 = icmp sgt i32 %0, 2
  br i1 %2, label %3, label %11

3:                                                ; preds = %1, %3
  %4 = phi i32 [ %8, %3 ], [ %0, %1 ]
  %5 = phi i32 [ %9, %3 ], [ 0, %1 ]
  %6 = add nsw i32 %4, -1
  %7 = tail call i32 @f(i32 %6)
  %8 = add nsw i32 %4, -2
  %9 = add nsw i32 %7, %5
  %10 = icmp sgt i32 %4, 4
  br i1 %10, label %3, label %11

11:                                               ; preds = %3, %1
  %12 = phi i32 [ %0, %1 ], [ %8, %3 ]
  %13 = phi i32 [ 0, %1 ], [ %9, %3 ]
  %14 = icmp eq i32 %12, 2
  %15 = select i1 %14, i32 2, i32 1
  %16 = add nsw i32 %15, %13
  ret i32 %16
}

; Function Attrs: argmemonly mustprogress nofree nosync nounwind willreturn
declare void @llvm.lifetime.start.p0i8(i64 immarg, i8* nocapture) #1

; Function Attrs: argmemonly mustprogress nofree nosync nounwind willreturn
declare void @llvm.lifetime.end.p0i8(i64 immarg, i8* nocapture) #1

; Function Attrs: nofree nounwind sspstrong uwtable
define dso_local i32 @main() local_unnamed_addr #2 {
  %1 = alloca i32, align 4
  %2 = alloca i32, align 4
  %3 = bitcast i32* %1 to i8*
  call void @llvm.lifetime.start.p0i8(i64 4, i8* nonnull %3) #4
  %4 = call i32 (i8*, ...) @__isoc99_scanf(i8* getelementptr inbounds ([3 x i8], [3 x i8]* @.str, i64 0, i64 0), i32* nonnull %1)
  %5 = bitcast i32* %2 to i8*
  %6 = load i32, i32* %1, align 4, !tbaa !5
  %7 = icmp sgt i32 %6, 0
  br i1 %7, label %8, label %34

8:                                                ; preds = %0, %27
  %9 = phi i32 [ %31, %27 ], [ 0, %0 ]
  call void @llvm.lifetime.start.p0i8(i64 4, i8* nonnull %5) #4
  %10 = call i32 (i8*, ...) @__isoc99_scanf(i8* getelementptr inbounds ([3 x i8], [3 x i8]* @.str, i64 0, i64 0), i32* nonnull %2)
  %11 = load i32, i32* %2, align 4, !tbaa !5
  %12 = icmp slt i32 %11, 1
  br i1 %12, label %27, label %13

13:                                               ; preds = %8
  %14 = add i32 %11, 1
  br label %15

15:                                               ; preds = %13, %15
  %16 = phi float [ %24, %15 ], [ 0.000000e+00, %13 ]
  %17 = phi i32 [ %25, %15 ], [ 2, %13 ]
  %18 = call i32 @f(i32 %17)
  %19 = sitofp i32 %18 to float
  %20 = add nsw i32 %17, -1
  %21 = call i32 @f(i32 %20)
  %22 = sitofp i32 %21 to float
  %23 = fdiv float %19, %22
  %24 = fadd float %16, %23
  %25 = add nuw i32 %17, 1
  %26 = icmp eq i32 %17, %14
  br i1 %26, label %27, label %15, !llvm.loop !9

27:                                               ; preds = %15, %8
  %28 = phi float [ 0.000000e+00, %8 ], [ %24, %15 ]
  %29 = fpext float %28 to double
  %30 = call i32 (i8*, ...) @printf(i8* nonnull dereferenceable(1) getelementptr inbounds ([6 x i8], [6 x i8]* @.str.1, i64 0, i64 0), double %29)
  call void @llvm.lifetime.end.p0i8(i64 4, i8* nonnull %5) #4
  %31 = add nuw nsw i32 %9, 1
  %32 = load i32, i32* %1, align 4, !tbaa !5
  %33 = icmp slt i32 %31, %32
  br i1 %33, label %8, label %34, !llvm.loop !11

34:                                               ; preds = %27, %0
  call void @llvm.lifetime.end.p0i8(i64 4, i8* nonnull %3) #4
  ret i32 0
}

; Function Attrs: nofree nounwind
declare noundef i32 @__isoc99_scanf(i8* nocapture noundef readonly, ...) local_unnamed_addr #3

; Function Attrs: nofree nounwind
declare noundef i32 @printf(i8* nocapture noundef readonly, ...) local_unnamed_addr #3


!llvm.module.flags = !{!0, !1, !2, !3}
!llvm.ident = !{!4}

!0 = !{i32 1, !"wchar_size", i32 4}
!1 = !{i32 7, !"PIC Level", i32 2}
!2 = !{i32 7, !"PIE Level", i32 2}
!3 = !{i32 7, !"uwtable", i32 1}
!4 = !{!"clang version 13.0.0"}
!5 = !{!6, !6, i64 0}
!6 = !{!"int", !7, i64 0}
!7 = !{!"omnipotent char", !8, i64 0}
!8 = !{!"Simple C/C++ TBAA"}
!9 = distinct !{!9, !10}
!10 = !{!"llvm.loop.mustprogress"}
!11 = distinct !{!11, !10}
